target datalayout = "e-m:e-p270:32:32-p271:32:32-p272:64:64-i64:64-i128:128-f80:128-n8:16:32:64-S128"
target triple = "x86_64-pc-linux-gnu"

%struct.DdManager = type { %struct.DdNode, ptr, ptr, ptr, ptr, ptr, ptr, ptr, i32, i32, double, double, double, i32, i32, i32, i32, i32, i32, ptr, ptr, %struct.DdSubtable, i32, i32, i32, i32, i32, i32, i32, double, i32, i32, i32, ptr, i64, double, i32, ptr, ptr, ptr, ptr, ptr, ptr, ptr, i32, ptr, ptr, ptr, ptr, ptr, ptr, i32, i32, i32, double, i32, i32, i32, i32, double, double, i32, i32, i32, i32, i32, i32, i32, i32, i32, ptr, ptr, i32, i32, i32, i32, i32, i32, ptr, ptr, ptr, ptr, ptr, ptr, ptr, ptr, i32, i64, i64, i64, i32, i64, i64, double, double, double, double, double, double, i32, ptr, ptr, i64 }
%struct.DdNode = type { i32, i32, ptr, %union.anon, i64 }
%union.anon = type { %struct.DdChildren }
%struct.DdChildren = type { ptr, ptr }
%struct.DdSubtable = type { ptr, i32, i32, i32, i32, i32, i32, i32, i32, i32, i32, i32 }
%struct.DdLocalCache = type { ptr, i32, i32, i32, i32, double, double, double, i32, ptr, ptr }
%struct.DdLocalCacheItem = type { ptr, [1 x ptr] }

; Function Attrs: nounwind uwtable
define void @cuddLocalCacheClearDead(ptr noundef %0) #0 {
  %2 = alloca ptr, align 8
  %3 = alloca ptr, align 8
  %4 = alloca i32, align 4
  %5 = alloca i32, align 4
  %6 = alloca i32, align 4
  %7 = alloca ptr, align 8
  %8 = alloca ptr, align 8
  %9 = alloca i32, align 4
  %10 = alloca i32, align 4
  store ptr %0, ptr %2, align 8, !tbaa !3
  call void @llvm.lifetime.start.p0(i64 8, ptr %3) #10
  %11 = load ptr, ptr %2, align 8, !tbaa !3
  %12 = getelementptr inbounds nuw %struct.DdManager, ptr %11, i32 0, i32 78
  %13 = load ptr, ptr %12, align 8, !tbaa !43
  store ptr %13, ptr %3, align 8, !tbaa !10
  call void @llvm.lifetime.start.p0(i64 4, ptr %4) #10
  call void @llvm.lifetime.start.p0(i64 4, ptr %5) #10
  call void @llvm.lifetime.start.p0(i64 4, ptr %6) #10
  call void @llvm.lifetime.start.p0(i64 8, ptr %7) #10
  call void @llvm.lifetime.start.p0(i64 8, ptr %8) #10
  call void @llvm.lifetime.start.p0(i64 4, ptr %9) #10
  call void @llvm.lifetime.start.p0(i64 4, ptr %10) #10
  br label %14

14:                                               ; preds = %89, %1
  %15 = load ptr, ptr %3, align 8, !tbaa !10
  %16 = icmp ne ptr %15, null
  br i1 %16, label %17, label %93

17:                                               ; preds = %14
  %18 = load ptr, ptr %3, align 8, !tbaa !10
  %19 = getelementptr inbounds nuw %struct.DdLocalCache, ptr %18, i32 0, i32 2
  %20 = load i32, ptr %19, align 4, !tbaa !31
  store i32 %20, ptr %4, align 4, !tbaa !8
  %21 = load ptr, ptr %3, align 8, !tbaa !10
  %22 = getelementptr inbounds nuw %struct.DdLocalCache, ptr %21, i32 0, i32 1
  %23 = load i32, ptr %22, align 8, !tbaa !32
  store i32 %23, ptr %5, align 4, !tbaa !8
  %24 = load ptr, ptr %3, align 8, !tbaa !10
  %25 = getelementptr inbounds nuw %struct.DdLocalCache, ptr %24, i32 0, i32 3
  %26 = load i32, ptr %25, align 8, !tbaa !35
  store i32 %26, ptr %6, align 4, !tbaa !8
  %27 = load ptr, ptr %3, align 8, !tbaa !10
  %28 = getelementptr inbounds nuw %struct.DdLocalCache, ptr %27, i32 0, i32 0
  %29 = load ptr, ptr %28, align 8, !tbaa !34
  store ptr %29, ptr %7, align 8, !tbaa !51
  store i32 0, ptr %9, align 4, !tbaa !8
  br label %30

30:                                               ; preds = %86, %17
  %31 = load i32, ptr %9, align 4, !tbaa !8
  %32 = load i32, ptr %6, align 4, !tbaa !8
  %33 = icmp ult i32 %31, %32
  br i1 %33, label %34, label %89

34:                                               ; preds = %30
  %35 = load ptr, ptr %7, align 8, !tbaa !51
  %36 = getelementptr inbounds nuw %struct.DdLocalCacheItem, ptr %35, i32 0, i32 0
  %37 = load ptr, ptr %36, align 8, !tbaa !52
  %38 = icmp ne ptr %37, null
  br i1 %38, label %39, label %81

39:                                               ; preds = %34
  %40 = load ptr, ptr %7, align 8, !tbaa !51
  %41 = getelementptr inbounds nuw %struct.DdLocalCacheItem, ptr %40, i32 0, i32 0
  %42 = load ptr, ptr %41, align 8, !tbaa !52
  %43 = ptrtoint ptr %42 to i64
  %44 = and i64 %43, -2
  %45 = inttoptr i64 %44 to ptr
  %46 = getelementptr inbounds nuw %struct.DdNode, ptr %45, i32 0, i32 1
  %47 = load i32, ptr %46, align 4, !tbaa !55
  %48 = icmp eq i32 %47, 0
  br i1 %48, label %49, label %52

49:                                               ; preds = %39
  %50 = load ptr, ptr %7, align 8, !tbaa !51
  %51 = getelementptr inbounds nuw %struct.DdLocalCacheItem, ptr %50, i32 0, i32 0
  store ptr null, ptr %51, align 8, !tbaa !52
  br label %80

52:                                               ; preds = %39
  %53 = load ptr, ptr %7, align 8, !tbaa !51
  %54 = getelementptr inbounds nuw %struct.DdLocalCacheItem, ptr %53, i32 0, i32 1
  %55 = getelementptr inbounds [1 x ptr], ptr %54, i64 0, i64 0
  store ptr %55, ptr %8, align 8, !tbaa !49
  store i32 0, ptr %10, align 4, !tbaa !8
  br label %56

56:                                               ; preds = %76, %52
  %57 = load i32, ptr %10, align 4, !tbaa !8
  %58 = load i32, ptr %4, align 4, !tbaa !8
  %59 = icmp ult i32 %57, %58
  br i1 %59, label %60, label %79

60:                                               ; preds = %56
  %61 = load ptr, ptr %8, align 8, !tbaa !49
  %62 = load i32, ptr %10, align 4, !tbaa !8
  %63 = zext i32 %62 to i64
  %64 = getelementptr inbounds nuw ptr, ptr %61, i64 %63
  %65 = load ptr, ptr %64, align 8, !tbaa !50
  %66 = ptrtoint ptr %65 to i64
  %67 = and i64 %66, -2
  %68 = inttoptr i64 %67 to ptr
  %69 = getelementptr inbounds nuw %struct.DdNode, ptr %68, i32 0, i32 1
  %70 = load i32, ptr %69, align 4, !tbaa !55
  %71 = icmp eq i32 %70, 0
  br i1 %71, label %72, label %75

72:                                               ; preds = %60
  %73 = load ptr, ptr %7, align 8, !tbaa !51
  %74 = getelementptr inbounds nuw %struct.DdLocalCacheItem, ptr %73, i32 0, i32 0
  store ptr null, ptr %74, align 8, !tbaa !52
  br label %79

75:                                               ; preds = %60
  br label %76

76:                                               ; preds = %75
  %77 = load i32, ptr %10, align 4, !tbaa !8
  %78 = add i32 %77, 1
  store i32 %78, ptr %10, align 4, !tbaa !8
  br label %56, !llvm.loop !58

79:                                               ; preds = %72, %56
  br label %80

80:                                               ; preds = %79, %49
  br label %81

81:                                               ; preds = %80, %34
  %82 = load ptr, ptr %7, align 8, !tbaa !51
  %83 = load i32, ptr %5, align 4, !tbaa !8
  %84 = zext i32 %83 to i64
  %85 = getelementptr inbounds nuw i8, ptr %82, i64 %84
  store ptr %85, ptr %7, align 8, !tbaa !51
  br label %86

86:                                               ; preds = %81
  %87 = load i32, ptr %9, align 4, !tbaa !8
  %88 = add i32 %87, 1
  store i32 %88, ptr %9, align 4, !tbaa !8
  br label %30, !llvm.loop !59

89:                                               ; preds = %30
  %90 = load ptr, ptr %3, align 8, !tbaa !10
  %91 = getelementptr inbounds nuw %struct.DdLocalCache, ptr %90, i32 0, i32 10
  %92 = load ptr, ptr %91, align 8, !tbaa !44
  store ptr %92, ptr %3, align 8, !tbaa !10
  br label %14, !llvm.loop !60

93:                                               ; preds = %14
  call void @llvm.lifetime.end.p0(i64 4, ptr %10) #10
  call void @llvm.lifetime.end.p0(i64 4, ptr %9) #10
  call void @llvm.lifetime.end.p0(i64 8, ptr %8) #10
  call void @llvm.lifetime.end.p0(i64 8, ptr %7) #10
  call void @llvm.lifetime.end.p0(i64 4, ptr %6) #10
  call void @llvm.lifetime.end.p0(i64 4, ptr %5) #10
  call void @llvm.lifetime.end.p0(i64 4, ptr %4) #10
  call void @llvm.lifetime.end.p0(i64 8, ptr %3) #10
  ret void
}