; Function Attrs: nofree norecurse nosync nounwind memory(readwrite, inaccessiblemem: none) uwtable
define void @cuddLocalCacheClearDead(ptr noundef readonly captures(none) %0) local_unnamed_addr #6 {
  %2 = getelementptr inbounds nuw i8, ptr %0, i64 560
  %.02231 = load ptr, ptr %2, align 8, !tbaa !42
  %.not32 = icmp eq ptr %.02231, null
  br i1 %.not32, label %._crit_edge35, label %.lr.ph

.lr.ph:                                           ; preds = %1, %._crit_edge
  %.02233 = phi ptr [ %.022, %._crit_edge ], [ %.02231, %1 ]
  %3 = getelementptr inbounds nuw i8, ptr %.02233, i64 12
  %4 = load i32, ptr %3, align 4, !tbaa !28
  %.fr37 = freeze i32 %4
  %5 = getelementptr inbounds nuw i8, ptr %.02233, i64 16
  %6 = load i32, ptr %5, align 8, !tbaa !32
  %.not36 = icmp eq i32 %6, 0
  br i1 %.not36, label %._crit_edge, label %.lr.ph30

.lr.ph30:                                         ; preds = %.lr.ph
  %7 = load ptr, ptr %.02233, align 8, !tbaa !31
  %8 = getelementptr inbounds nuw i8, ptr %.02233, i64 8
  %9 = load i32, ptr %8, align 8, !tbaa !29
  %.not38 = icmp eq i32 %.fr37, 0
  %10 = zext i32 %9 to i64
  br i1 %.not38, label %.lr.ph30.split, label %.lr.ph30.split.us.preheader

.lr.ph30.split.us.preheader:                      ; preds = %.lr.ph30
  %wide.trip.count = zext i32 %.fr37 to i64
  br label %.lr.ph30.split.us

.lr.ph30.split.us:                                ; preds = %.lr.ph30.split.us.preheader, %..loopexit_crit_edge.us
  %.02129.us = phi i32 [ %31, %..loopexit_crit_edge.us ], [ 0, %.lr.ph30.split.us.preheader ]
  %.02327.us = phi ptr [ %30, %..loopexit_crit_edge.us ], [ %7, %.lr.ph30.split.us.preheader ]
  %11 = load ptr, ptr %.02327.us, align 8, !tbaa !47
  %.not25.us = icmp eq ptr %11, null
  br i1 %.not25.us, label %..loopexit_crit_edge.us, label %12

12:                                               ; preds = %.lr.ph30.split.us
  %13 = ptrtoint ptr %11 to i64
  %14 = and i64 %13, -2
  %15 = inttoptr i64 %14 to ptr
  %16 = getelementptr inbounds nuw i8, ptr %15, i64 4
  %17 = load i32, ptr %16, align 4, !tbaa !49
  %18 = icmp eq i32 %17, 0
  br i1 %18, label %..loopexit_crit_edge.us.sink.split, label %.lr.ph.us

.lr.ph.us:                                        ; preds = %12
  %19 = getelementptr inbounds nuw i8, ptr %.02327.us, i64 8
  br label %21

20:                                               ; preds = %21
  %indvars.iv.next = add nuw nsw i64 %indvars.iv, 1
  %exitcond.not = icmp eq i64 %indvars.iv.next, %wide.trip.count
  br i1 %exitcond.not, label %..loopexit_crit_edge.us, label %21, !llvm.loop !52

21:                                               ; preds = %.lr.ph.us, %20
  %indvars.iv = phi i64 [ 0, %.lr.ph.us ], [ %indvars.iv.next, %20 ]
  %22 = getelementptr inbounds nuw ptr, ptr %19, i64 %indvars.iv
  %23 = load ptr, ptr %22, align 8, !tbaa !45
  %24 = ptrtoint ptr %23 to i64
  %25 = and i64 %24, -2
  %26 = inttoptr i64 %25 to ptr
  %27 = getelementptr inbounds nuw i8, ptr %26, i64 4
  %28 = load i32, ptr %27, align 4, !tbaa !49
  %29 = icmp eq i32 %28, 0
  br i1 %29, label %..loopexit_crit_edge.us.sink.split, label %20

..loopexit_crit_edge.us.sink.split:               ; preds = %21, %12
  store ptr null, ptr %.02327.us, align 8, !tbaa !47
  br label %..loopexit_crit_edge.us

..loopexit_crit_edge.us:                          ; preds = %20, %..loopexit_crit_edge.us.sink.split, %.lr.ph30.split.us
  %30 = getelementptr inbounds nuw i8, ptr %.02327.us, i64 %10
  %31 = add nuw i32 %.02129.us, 1
  %exitcond41.not = icmp eq i32 %31, %6
  br i1 %exitcond41.not, label %._crit_edge, label %.lr.ph30.split.us, !llvm.loop !53

.lr.ph30.split:                                   ; preds = %.lr.ph30, %.loopexit
  %.02129 = phi i32 [ %42, %.loopexit ], [ 0, %.lr.ph30 ]
  %.02327 = phi ptr [ %41, %.loopexit ], [ %7, %.lr.ph30 ]
  %32 = load ptr, ptr %.02327, align 8, !tbaa !47
  %.not25 = icmp eq ptr %32, null
  br i1 %.not25, label %.loopexit, label %33

33:                                               ; preds = %.lr.ph30.split
  %34 = ptrtoint ptr %32 to i64
  %35 = and i64 %34, -2
  %36 = inttoptr i64 %35 to ptr
  %37 = getelementptr inbounds nuw i8, ptr %36, i64 4
  %38 = load i32, ptr %37, align 4, !tbaa !49
  %39 = icmp eq i32 %38, 0
  br i1 %39, label %40, label %.loopexit

40:                                               ; preds = %33
  store ptr null, ptr %.02327, align 8, !tbaa !47
  br label %.loopexit

.loopexit:                                        ; preds = %33, %40, %.lr.ph30.split
  %41 = getelementptr inbounds nuw i8, ptr %.02327, i64 %10
  %42 = add nuw i32 %.02129, 1
  %exitcond42.not = icmp eq i32 %42, %6
  br i1 %exitcond42.not, label %._crit_edge, label %.lr.ph30.split, !llvm.loop !53

._crit_edge:                                      ; preds = %..loopexit_crit_edge.us, %.loopexit, %.lr.ph
  %43 = getelementptr inbounds nuw i8, ptr %.02233, i64 64
  %.022 = load ptr, ptr %43, align 8, !tbaa !42
  %.not = icmp eq ptr %.022, null
  br i1 %.not, label %._crit_edge35, label %.lr.ph, !llvm.loop !54

._crit_edge35:                                    ; preds = %._crit_edge, %1
  ret void
}